target datalayout = "e-m:e-p270:32:32-p271:32:32-p272:64:64-i64:64-i128:128-f80:128-n8:16:32:64-S128"
target triple = "x86_64-pc-linux-gnu"

%struct._value_string_ext = type { ptr, i32, i32, ptr, ptr }
%struct._packet_info = type { ptr, ptr, i32, i32, %struct.nstime_t, %struct.nstime_t, %struct.nstime_t, i8, ptr, ptr, ptr, ptr, %struct._address, %struct._address, %struct._address, %struct._address, %struct._address, %struct._address, i32, ptr, i8, [3 x i8], %struct.anon, i32, i32, i32, i32, ptr, i8, ptr, ptr, i16, i16, i32, i32, i16, i32, i32, ptr, ptr, ptr, i8, i8, i16, i16, i16, i32, i16, i16, ptr, ptr, ptr, ptr, ptr, i32, i32 }
%struct.nstime_t = type { i64, i32 }
%struct._address = type { i32, i32, ptr, ptr }
%struct.anon = type { i8, [3 x i8] }

@ppp_vals_ext = hidden global %struct._value_string_ext { ptr @_try_val_to_str_ext_init, i32 0, i32 133, ptr @ppp_vals, ptr @.str.6 }, align 8
@.str.692 = private unnamed_addr constant [8 x i8] c"Unknown\00", align 1
@hf_iphc_crtp_cid16 = internal global i32 0, align 4
@hf_iphc_crtp_cid8 = internal global i32 0, align 4
@hf_iphc_crtp_gen = internal global i32 0, align 4
@hf_iphc_crtp_seq = internal global i32 0, align 4
@hf_iphc_crtp_fh_flags = internal global i32 0, align 4
@hf_iphc_crtp_ip_id = internal global i32 0, align 4
@hf_iphc_crtp_data = internal global i32 0, align 4
@ett_iphc_crtp = internal global i32 0, align 4
@ett_iphc_crtp_fh_flags = internal global i32 0, align 4
@.str.855 = private unnamed_addr constant [5 x i8] c"CRTP\00", align 1
@proto_iphc_crtp = internal global i32 0, align 4
@.str.1322 = private unnamed_addr constant [3 x i8] c"%s\00", align 1
@iphc_crtp_fh_flags_fields = internal constant [3 x ptr] [ptr @hf_iphc_crtp_fh_cidlenflag, ptr @hf_iphc_crtp_fh_dataflag, ptr null], align 16
@.str.1600 = private unnamed_addr constant [19 x i8] c"Compressed Non TCP\00", align 1
@iphc_crtp_cntcp_cid16_crumbs = internal constant [3 x { i32, i8, [3 x i8] }] [{ i32, i8, [3 x i8] } { i32 0, i8 8, [3 x i8] zeroinitializer }, { i32, i8, [3 x i8] } { i32 16, i8 8, [3 x i8] zeroinitializer }, { i32, i8, [3 x i8] } zeroinitializer], align 16

; Function Attrs: null_pointer_is_valid sspstrong uwtable
define internal i32 @dissect_iphc_crtp_cntcp(ptr noundef %0, ptr noundef %1, ptr noundef %2, ptr noundef %3) #1 {
  %5 = alloca ptr, align 8
  %6 = alloca ptr, align 8
  %7 = alloca ptr, align 8
  %8 = alloca ptr, align 8
  %9 = alloca ptr, align 8
  %10 = alloca ptr, align 8
  %11 = alloca i32, align 4
  %12 = alloca i32, align 4
  %13 = alloca i32, align 4
  %14 = alloca i32, align 4
  store ptr %0, ptr %5, align 8
  store ptr %1, ptr %6, align 8
  store ptr %2, ptr %7, align 8
  store ptr %3, ptr %8, align 8
  call void @llvm.lifetime.start.p0(i64 8, ptr %9) #6
  call void @llvm.lifetime.start.p0(i64 8, ptr %10) #6
  call void @llvm.lifetime.start.p0(i64 4, ptr %11) #6
  call void @llvm.lifetime.start.p0(i64 4, ptr %12) #6
  call void @llvm.lifetime.start.p0(i64 4, ptr %13) #6
  call void @llvm.lifetime.start.p0(i64 4, ptr %14) #6
  store i32 0, ptr %14, align 4
  %15 = load ptr, ptr %6, align 8
  %16 = getelementptr inbounds nuw %struct._packet_info, ptr %15, i32 0, i32 1
  %17 = load ptr, ptr %16, align 8
  call void @col_set_str(ptr noundef %17, i32 noundef 35, ptr noundef @.str.855)
  %18 = load ptr, ptr %6, align 8
  %19 = getelementptr inbounds nuw %struct._packet_info, ptr %18, i32 0, i32 1
  %20 = load ptr, ptr %19, align 8
  call void @col_set_str(ptr noundef %20, i32 noundef 25, ptr noundef @.str.1600)
  %21 = load ptr, ptr %5, align 8
  %22 = call i32 @tvb_reported_length(ptr noundef %21)
  store i32 %22, ptr %11, align 4
  %23 = load ptr, ptr %5, align 8
  %24 = call zeroext i8 @tvb_get_uint8(ptr noundef %23, i32 noundef 1)
  %25 = zext i8 %24 to i32
  %26 = and i32 %25, 192
  store i32 %26, ptr %12, align 4
  %27 = load ptr, ptr %7, align 8
  %28 = load i32, ptr @proto_iphc_crtp, align 4
  %29 = load ptr, ptr %5, align 8
  %30 = call ptr @val_to_str_ext_const(i32 noundef 101, ptr noundef @ppp_vals_ext, ptr noundef @.str.692)
  %31 = call ptr (ptr, i32, ptr, i32, i32, ptr, ...) @proto_tree_add_protocol_format(ptr noundef %27, i32 noundef %28, ptr noundef %29, i32 noundef 0, i32 noundef -1, ptr noundef @.str.1322, ptr noundef %30)
  store ptr %31, ptr %10, align 8
  %32 = load ptr, ptr %10, align 8
  %33 = load i32, ptr @ett_iphc_crtp, align 4
  %34 = call ptr @proto_item_add_subtree(ptr noundef %32, i32 noundef %33)
  store ptr %34, ptr %9, align 8
  %35 = load i32, ptr %12, align 4
  %36 = and i32 %35, 128
  %37 = icmp ne i32 %36, 0
  br i1 %37, label %38, label %43

38:                                               ; preds = %4
  store i32 3, ptr %13, align 4
  %39 = load ptr, ptr %9, align 8
  %40 = load i32, ptr @hf_iphc_crtp_cid16, align 4
  %41 = load ptr, ptr %5, align 8
  %42 = call ptr @proto_tree_add_split_bits_item_ret_val(ptr noundef %39, i32 noundef %40, ptr noundef %41, i32 noundef 0, ptr noundef @iphc_crtp_cntcp_cid16_crumbs, ptr noundef null)
  br label %48

43:                                               ; preds = %4
  store i32 2, ptr %13, align 4
  %44 = load ptr, ptr %9, align 8
  %45 = load i32, ptr @hf_iphc_crtp_cid8, align 4
  %46 = load ptr, ptr %5, align 8
  %47 = call ptr @proto_tree_add_item(ptr noundef %44, i32 noundef %45, ptr noundef %46, i32 noundef 0, i32 noundef 1, i32 noundef 0)
  br label %48

48:                                               ; preds = %43, %38
  %49 = load ptr, ptr %9, align 8
  %50 = load ptr, ptr %5, align 8
  %51 = load i32, ptr @hf_iphc_crtp_fh_flags, align 4
  %52 = load i32, ptr @ett_iphc_crtp_fh_flags, align 4
  %53 = call ptr @proto_tree_add_bitmask_with_flags(ptr noundef %49, ptr noundef %50, i32 noundef 1, i32 noundef %51, i32 noundef %52, ptr noundef @iphc_crtp_fh_flags_fields, i32 noundef 0, i32 noundef 0)
  %54 = load ptr, ptr %9, align 8
  %55 = load i32, ptr @hf_iphc_crtp_gen, align 4
  %56 = load ptr, ptr %5, align 8
  %57 = call ptr @proto_tree_add_item(ptr noundef %54, i32 noundef %55, ptr noundef %56, i32 noundef 1, i32 noundef 1, i32 noundef 0)
  %58 = load i32, ptr %12, align 4
  %59 = and i32 %58, 64
  %60 = icmp ne i32 %59, 0
  br i1 %60, label %61, label %68

61:                                               ; preds = %48
  %62 = load ptr, ptr %9, align 8
  %63 = load i32, ptr @hf_iphc_crtp_seq, align 4
  %64 = load ptr, ptr %5, align 8
  %65 = load i32, ptr %13, align 4
  %66 = add i32 %65, 1
  store i32 %66, ptr %13, align 4
  %67 = call ptr @proto_tree_add_item(ptr noundef %62, i32 noundef %63, ptr noundef %64, i32 noundef %65, i32 noundef 1, i32 noundef 0)
  br label %68

68:                                               ; preds = %61, %48
  %69 = load i32, ptr %13, align 4
  %70 = load i32, ptr %14, align 4
  %71 = add i32 %70, %69
  store i32 %71, ptr %14, align 4
  %72 = load i32, ptr %13, align 4
  %73 = load i32, ptr %11, align 4
  %74 = sub i32 %73, %72
  store i32 %74, ptr %11, align 4
  %75 = load ptr, ptr %9, align 8
  %76 = load i32, ptr @hf_iphc_crtp_ip_id, align 4
  %77 = load ptr, ptr %5, align 8
  %78 = load i32, ptr %14, align 4
  %79 = call ptr @proto_tree_add_item(ptr noundef %75, i32 noundef %76, ptr noundef %77, i32 noundef %78, i32 noundef 2, i32 noundef 0)
  %80 = load i32, ptr %14, align 4
  %81 = add i32 %80, 2
  store i32 %81, ptr %14, align 4
  %82 = load i32, ptr %11, align 4
  %83 = sub i32 %82, 2
  store i32 %83, ptr %11, align 4
  %84 = load ptr, ptr %9, align 8
  %85 = load i32, ptr @hf_iphc_crtp_data, align 4
  %86 = load ptr, ptr %5, align 8
  %87 = load i32, ptr %14, align 4
  %88 = load i32, ptr %11, align 4
  %89 = call ptr @proto_tree_add_item(ptr noundef %84, i32 noundef %85, ptr noundef %86, i32 noundef %87, i32 noundef %88, i32 noundef 0)
  %90 = load ptr, ptr %5, align 8
  %91 = call i32 @tvb_captured_length(ptr noundef %90)
  call void @llvm.lifetime.end.p0(i64 4, ptr %14) #6
  call void @llvm.lifetime.end.p0(i64 4, ptr %13) #6
  call void @llvm.lifetime.end.p0(i64 4, ptr %12) #6
  call void @llvm.lifetime.end.p0(i64 4, ptr %11) #6
  call void @llvm.lifetime.end.p0(i64 8, ptr %10) #6
  call void @llvm.lifetime.end.p0(i64 8, ptr %9) #6
  ret i32 %91
}