; Function Attrs: null_pointer_is_valid sspstrong uwtable
define internal i32 @dissect_iphc_crtp_cntcp(ptr noundef %0, ptr noundef readonly captures(none) %1, ptr noundef %2, ptr readnone captures(none) %3) #1 {
  %5 = getelementptr inbounds nuw i8, ptr %1, i64 8
  %6 = load ptr, ptr %5, align 8
  tail call void @col_set_str(ptr noundef %6, i32 noundef 35, ptr noundef nonnull @.str.855)
  %7 = load ptr, ptr %5, align 8
  tail call void @col_set_str(ptr noundef %7, i32 noundef 25, ptr noundef nonnull @.str.1600)
  %8 = tail call i32 @tvb_reported_length(ptr noundef %0)
  %9 = tail call zeroext i8 @tvb_get_uint8(ptr noundef %0, i32 noundef 1)
  %10 = load i32, ptr @proto_iphc_crtp, align 4
  %11 = tail call ptr @val_to_str_ext_const(i32 noundef 101, ptr noundef nonnull @ppp_vals_ext, ptr noundef nonnull @.str.692)
  %12 = tail call ptr (ptr, i32, ptr, i32, i32, ptr, ...) @proto_tree_add_protocol_format(ptr noundef %2, i32 noundef %10, ptr noundef %0, i32 noundef 0, i32 noundef -1, ptr noundef nonnull @.str.1322, ptr noundef %11)
  %13 = load i32, ptr @ett_iphc_crtp, align 4
  %14 = tail call ptr @proto_item_add_subtree(ptr noundef %12, i32 noundef %13)
  %.not = icmp sgt i8 %9, -1
  br i1 %.not, label %18, label %15

15:                                               ; preds = %4
  %16 = load i32, ptr @hf_iphc_crtp_cid16, align 4
  %17 = tail call ptr @proto_tree_add_split_bits_item_ret_val(ptr noundef %14, i32 noundef %16, ptr noundef %0, i32 noundef 0, ptr noundef nonnull @iphc_crtp_cntcp_cid16_crumbs, ptr noundef null)
  br label %21

18:                                               ; preds = %4
  %19 = load i32, ptr @hf_iphc_crtp_cid8, align 4
  %20 = tail call ptr @proto_tree_add_item(ptr noundef %14, i32 noundef %19, ptr noundef %0, i32 noundef 0, i32 noundef 1, i32 noundef 0)
  br label %21

21:                                               ; preds = %18, %15
  %.0 = phi i32 [ 3, %15 ], [ 2, %18 ]
  %22 = load i32, ptr @hf_iphc_crtp_fh_flags, align 4
  %23 = load i32, ptr @ett_iphc_crtp_fh_flags, align 4
  %24 = tail call ptr @proto_tree_add_bitmask_with_flags(ptr noundef %14, ptr noundef %0, i32 noundef 1, i32 noundef %22, i32 noundef %23, ptr noundef nonnull @iphc_crtp_fh_flags_fields, i32 noundef 0, i32 noundef 0)
  %25 = load i32, ptr @hf_iphc_crtp_gen, align 4
  %26 = tail call ptr @proto_tree_add_item(ptr noundef %14, i32 noundef %25, ptr noundef %0, i32 noundef 1, i32 noundef 1, i32 noundef 0)
  %27 = and i8 %9, 64
  %.not33 = icmp eq i8 %27, 0
  br i1 %.not33, label %32, label %28

28:                                               ; preds = %21
  %29 = load i32, ptr @hf_iphc_crtp_seq, align 4
  %30 = add nuw nsw i32 %.0, 1
  %31 = tail call ptr @proto_tree_add_item(ptr noundef %14, i32 noundef %29, ptr noundef %0, i32 noundef %.0, i32 noundef 1, i32 noundef 0)
  br label %32

32:                                               ; preds = %28, %21
  %.1 = phi i32 [ %30, %28 ], [ %.0, %21 ]
  %33 = load i32, ptr @hf_iphc_crtp_ip_id, align 4
  %34 = tail call ptr @proto_tree_add_item(ptr noundef %14, i32 noundef %33, ptr noundef %0, i32 noundef %.1, i32 noundef 2, i32 noundef 0)
  %35 = add nuw nsw i32 %.1, 2
  %36 = add i32 %8, -2
  %37 = sub i32 %36, %.1
  %38 = load i32, ptr @hf_iphc_crtp_data, align 4
  %39 = tail call ptr @proto_tree_add_item(ptr noundef %14, i32 noundef %38, ptr noundef %0, i32 noundef %35, i32 noundef %37, i32 noundef 0)
  %40 = tail call i32 @tvb_captured_length(ptr noundef %0)
  ret i32 %40
}